target datalayout = "e-m:e-p270:32:32-p271:32:32-p272:64:64-i64:64-i128:128-f80:128-n8:16:32:64-S128"
target triple = "x86_64-pc-linux-gnu"

@.str.1 = private unnamed_addr constant [18 x i8] c"decode_as_entries\00", align 1
@.str.2 = private unnamed_addr constant [2 x i8] c"r\00", align 1

; Function Attrs: null_pointer_is_valid sspstrong uwtable
define hidden void @load_decode_as_entries() #0 {
  %1 = alloca ptr, align 8
  %2 = alloca ptr, align 8
  %3 = alloca ptr, align 8
  call void @llvm.lifetime.start.p0(i64 8, ptr %1) #15
  call void @llvm.lifetime.start.p0(i64 8, ptr %2) #15
  call void @decode_clear_all()
  %4 = call ptr @get_persconffile_path(ptr noundef @.str.1, i1 noundef zeroext true)
  store ptr %4, ptr %1, align 8
  %5 = load ptr, ptr %1, align 8
  %6 = call noalias ptr @fopen(ptr noundef %5, ptr noundef @.str.2)
  store ptr %6, ptr %2, align 8
  %7 = icmp ne ptr %6, null
  br i1 %7, label %8, label %17

8:                                                ; preds = %0
  call void @llvm.lifetime.start.p0(i64 8, ptr %3) #15
  %9 = call ptr @g_hash_table_new(ptr noundef @g_str_hash, ptr noundef @g_str_equal)
  store ptr %9, ptr %3, align 8
  %10 = load ptr, ptr %1, align 8
  %11 = load ptr, ptr %2, align 8
  %12 = load ptr, ptr %3, align 8
  %13 = call i32 @read_prefs_file(ptr noundef %10, ptr noundef %11, ptr noundef @read_set_decode_as_entries, ptr noundef %12)
  %14 = load ptr, ptr %3, align 8
  call void @g_hash_table_destroy(ptr noundef %14)
  %15 = load ptr, ptr %2, align 8
  %16 = call i32 @fclose(ptr noundef %15)
  call void @llvm.lifetime.end.p0(i64 8, ptr %3) #15
  br label %17

17:                                               ; preds = %8, %0
  %18 = load ptr, ptr %1, align 8
  call void @g_free(ptr noundef %18)
  call void @llvm.lifetime.end.p0(i64 8, ptr %2) #15
  call void @llvm.lifetime.end.p0(i64 8, ptr %1) #15
  ret void
}