; Function Attrs: null_pointer_is_valid sspstrong uwtable
define hidden void @load_decode_as_entries() local_unnamed_addr #0 {
  tail call void @decode_clear_all()
  %1 = tail call ptr @get_persconffile_path(ptr noundef nonnull @.str.1, i1 noundef zeroext true)
  %2 = tail call noalias ptr @fopen(ptr noundef %1, ptr noundef nonnull @.str.2)
  %.not = icmp eq ptr %2, null
  br i1 %.not, label %7, label %3

3:                                                ; preds = %0
  %4 = tail call ptr @g_hash_table_new(ptr noundef nonnull @g_str_hash, ptr noundef nonnull @g_str_equal)
  %5 = tail call i32 @read_prefs_file(ptr noundef %1, ptr noundef nonnull %2, ptr noundef nonnull @read_set_decode_as_entries, ptr noundef %4)
  tail call void @g_hash_table_destroy(ptr noundef %4)
  %6 = tail call i32 @fclose(ptr noundef nonnull %2)
  br label %7

7:                                                ; preds = %3, %0
  tail call void @g_free(ptr noundef %1)
  ret void
}